target datalayout = "e-m:e-p270:32:32-p271:32:32-p272:64:64-i64:64-i128:128-f80:128-n8:16:32:64-S128"
target triple = "x86_64-pc-linux-gnu"

%struct.sct_st = type { i32, ptr, i64, ptr, i64, i64, ptr, i64, i8, i8, ptr, i64, i32, i32, i32 }

@.str = private unnamed_addr constant [30 x i8] c"../openssl/crypto/ct/ct_sct.c\00", align 1
@__func__.SCT_set_log_entry_type = private unnamed_addr constant [23 x i8] c"SCT_set_log_entry_type\00", align 1

; Function Attrs: nounwind uwtable
define i32 @SCT_set_log_entry_type(ptr noundef %0, i32 noundef %1) #0 {
  %3 = alloca i32, align 4
  %4 = alloca ptr, align 8
  %5 = alloca i32, align 4
  store ptr %0, ptr %4, align 8, !tbaa !3
  store i32 %1, ptr %5, align 4, !tbaa !21
  %6 = load ptr, ptr %4, align 8, !tbaa !3
  %7 = getelementptr inbounds nuw %struct.sct_st, ptr %6, i32 0, i32 14
  store i32 0, ptr %7, align 8, !tbaa !22
  %8 = load i32, ptr %5, align 4, !tbaa !21
  switch i32 %8, label %13 [
    i32 0, label %9
    i32 1, label %9
    i32 -1, label %13
  ]

9:                                                ; preds = %2, %2
  %10 = load i32, ptr %5, align 4, !tbaa !21
  %11 = load ptr, ptr %4, align 8, !tbaa !3
  %12 = getelementptr inbounds nuw %struct.sct_st, ptr %11, i32 0, i32 12
  store i32 %10, ptr %12, align 8, !tbaa !8
  store i32 1, ptr %3, align 4
  br label %14

13:                                               ; preds = %2, %2
  call void @ERR_new()
  call void @ERR_set_debug(ptr noundef @.str, i32 noundef 74, ptr noundef @__func__.SCT_set_log_entry_type)
  call void (i32, i32, ptr, ...) @ERR_set_error(i32 noundef 50, i32 noundef 102, ptr noundef null)
  store i32 0, ptr %3, align 4
  br label %14

14:                                               ; preds = %13, %9
  %15 = load i32, ptr %3, align 4
  ret i32 %15
}

; Function Attrs: nounwind uwtable
define i32 @SCT_set_source(ptr noundef %0, i32 noundef %1) #0 {
  %3 = alloca i32, align 4
  %4 = alloca ptr, align 8
  %5 = alloca i32, align 4
  store ptr %0, ptr %4, align 8, !tbaa !3
  store i32 %1, ptr %5, align 4, !tbaa !21
  %6 = load i32, ptr %5, align 4, !tbaa !21
  %7 = load ptr, ptr %4, align 8, !tbaa !3
  %8 = getelementptr inbounds nuw %struct.sct_st, ptr %7, i32 0, i32 13
  store i32 %6, ptr %8, align 4, !tbaa !33
  %9 = load ptr, ptr %4, align 8, !tbaa !3
  %10 = getelementptr inbounds nuw %struct.sct_st, ptr %9, i32 0, i32 14
  store i32 0, ptr %10, align 8, !tbaa !22
  %11 = load i32, ptr %5, align 4, !tbaa !21
  switch i32 %11, label %18 [
    i32 1, label %12
    i32 3, label %12
    i32 2, label %15
    i32 0, label %18
  ]

12:                                               ; preds = %2, %2
  %13 = load ptr, ptr %4, align 8, !tbaa !3
  %14 = call i32 @SCT_set_log_entry_type(ptr noundef %13, i32 noundef 0)
  store i32 %14, ptr %3, align 4
  br label %19

15:                                               ; preds = %2
  %16 = load ptr, ptr %4, align 8, !tbaa !3
  %17 = call i32 @SCT_set_log_entry_type(ptr noundef %16, i32 noundef 1)
  store i32 %17, ptr %3, align 4
  br label %19

18:                                               ; preds = %2, %2
  store i32 1, ptr %3, align 4
  br label %19

19:                                               ; preds = %18, %15, %12
  %20 = load i32, ptr %3, align 4
  ret i32 %20
}