; Function Attrs: mustprogress nofree norecurse nosync nounwind willreturn memory(argmem: write) uwtable
define noundef range(i32 0, 2) i32 @SCT_set_source(ptr noundef writeonly captures(none) initializes((92, 100)) %0, i32 noundef %1) local_unnamed_addr #3 {
  %3 = getelementptr inbounds nuw i8, ptr %0, i64 92
  store i32 %1, ptr %3, align 4, !tbaa !24
  %4 = getelementptr inbounds nuw i8, ptr %0, i64 96
  store i32 0, ptr %4, align 8, !tbaa !16
  %switch.tableidx = add i32 %1, -1
  %5 = icmp ult i32 %switch.tableidx, 3
  br i1 %5, label %switch.lookup, label %8

switch.lookup:                                    ; preds = %2
  %6 = zext nneg i32 %switch.tableidx to i64
  %switch.gep = getelementptr inbounds nuw [3 x i32], ptr @switch.table.SCT_set_source, i64 0, i64 %6
  %switch.load = load i32, ptr %switch.gep, align 4
  %7 = getelementptr inbounds nuw i8, ptr %0, i64 88
  store i32 %switch.load, ptr %7, align 8, !tbaa !3
  br label %8

8:                                                ; preds = %2, %switch.lookup
  ret i32 1
}